target datalayout = "e-m:e-p270:32:32-p271:32:32-p272:64:64-i64:64-i128:128-f80:128-n8:16:32:64-S128"
target triple = "x86_64-unknown-linux-gnu"

%"class.OpenImageIO_v2_6_0::pvt::TextureSystemImpl" = type <{ %"class.OpenImageIO_v2_6_0::TextureSystem", ptr, i8, [3 x i8], %"class.Imath_2_5::Matrix44", %"class.Imath_2_5::Matrix44", i8, i8, [2 x i8], i32, i32, %"class.boost::thread_specific_ptr", %"class.std::unique_ptr", i32, [4 x i8] }>
%"class.OpenImageIO_v2_6_0::TextureSystem" = type { ptr }
%"class.Imath_2_5::Matrix44" = type { [4 x [4 x float]] }
%"class.boost::thread_specific_ptr" = type { ptr }
%"class.std::unique_ptr" = type { %"struct.std::__uniq_ptr_data" }
%"struct.std::__uniq_ptr_data" = type { %"class.std::__uniq_ptr_impl" }
%"class.std::__uniq_ptr_impl" = type { %"class.std::tuple" }
%"class.std::tuple" = type { %"struct.std::_Tuple_impl" }
%"struct.std::_Tuple_impl" = type { %"struct.std::_Head_base.3" }
%"struct.std::_Head_base.3" = type { ptr }
%"class.OpenImageIO_v2_6_0::basic_string_view" = type { ptr, i64 }

@.str.15 = private unnamed_addr constant [9 x i8] c"b-spline\00", align 1
@.str.16 = private unnamed_addr constant [28 x i8] c"OPENIMAGEIO_TEXTURE_OPTIONS\00", align 1
@.str.17 = private unnamed_addr constant [8 x i8] c"options\00", align 1
@_ZN18OpenImageIO_v2_6_012_GLOBAL__N_120do_unit_test_textureE = internal global i8 0, align 1

; Function Attrs: mustprogress nounwind uwtable
define linkonce_odr noundef nonnull align 1 dereferenceable(1) ptr @_ZNSt10_Head_baseILm1ESt14default_deleteIN18OpenImageIO_v2_6_08Filter1DEELb1EE7_M_headERS4_(ptr noundef nonnull align 1 dereferenceable(1) %__b) #1 comdat align 2 {
entry:
  %__b.addr = alloca ptr, align 8
  store ptr %__b, ptr %__b.addr, align 8
  %0 = load ptr, ptr %__b.addr, align 8
  ret ptr %0
}

; Function Attrs: mustprogress nounwind uwtable
define linkonce_odr noundef nonnull align 8 dereferenceable(8) ptr @_ZNSt10_Head_baseILm0EPN18OpenImageIO_v2_6_08Filter1DELb0EE7_M_headERS3_(ptr noundef nonnull align 8 dereferenceable(8) %__b) #1 comdat align 2 {
entry:
  %__b.addr = alloca ptr, align 8
  store ptr %__b, ptr %__b.addr, align 8
  %0 = load ptr, ptr %__b.addr, align 8
  %_M_head_impl = getelementptr inbounds %"struct.std::_Head_base.3", ptr %0, i32 0, i32 0
  ret ptr %_M_head_impl
}

; Function Attrs: mustprogress nounwind uwtable
define linkonce_odr noundef nonnull align 1 dereferenceable(1) ptr @_ZNSt11_Tuple_implILm1EJSt14default_deleteIN18OpenImageIO_v2_6_08Filter1DEEEE7_M_headERS4_(ptr noundef nonnull align 1 dereferenceable(1) %__t) #1 comdat align 2 {
entry:
  %__t.addr = alloca ptr, align 8
  store ptr %__t, ptr %__t.addr, align 8
  %0 = load ptr, ptr %__t.addr, align 8
  %call = call noundef nonnull align 1 dereferenceable(1) ptr @_ZNSt10_Head_baseILm1ESt14default_deleteIN18OpenImageIO_v2_6_08Filter1DEELb1EE7_M_headERS4_(ptr noundef nonnull align 1 dereferenceable(1) %0) #5
  ret ptr %call
}

; Function Attrs: mustprogress nounwind uwtable
define linkonce_odr noundef nonnull align 8 dereferenceable(8) ptr @_ZNSt11_Tuple_implILm0EJPN18OpenImageIO_v2_6_08Filter1DESt14default_deleteIS1_EEE7_M_headERS5_(ptr noundef nonnull align 8 dereferenceable(8) %__t) #1 comdat align 2 {
entry:
  %__t.addr = alloca ptr, align 8
  store ptr %__t, ptr %__t.addr, align 8
  %0 = load ptr, ptr %__t.addr, align 8
  %call = call noundef nonnull align 8 dereferenceable(8) ptr @_ZNSt10_Head_baseILm0EPN18OpenImageIO_v2_6_08Filter1DELb0EE7_M_headERS3_(ptr noundef nonnull align 8 dereferenceable(8) %0) #5
  ret ptr %call
}

; Function Attrs: mustprogress nounwind uwtable
define linkonce_odr noundef nonnull align 1 dereferenceable(1) ptr @_ZSt12__get_helperILm1ESt14default_deleteIN18OpenImageIO_v2_6_08Filter1DEEJEERT0_RSt11_Tuple_implIXT_EJS4_DpT1_EE(ptr noundef nonnull align 1 dereferenceable(1) %__t) #1 comdat {
entry:
  %__t.addr = alloca ptr, align 8
  store ptr %__t, ptr %__t.addr, align 8
  %0 = load ptr, ptr %__t.addr, align 8
  %call = call noundef nonnull align 1 dereferenceable(1) ptr @_ZNSt11_Tuple_implILm1EJSt14default_deleteIN18OpenImageIO_v2_6_08Filter1DEEEE7_M_headERS4_(ptr noundef nonnull align 1 dereferenceable(1) %0) #5
  ret ptr %call
}

; Function Attrs: mustprogress nounwind uwtable
define linkonce_odr noundef nonnull align 8 dereferenceable(8) ptr @_ZSt12__get_helperILm0EPN18OpenImageIO_v2_6_08Filter1DEJSt14default_deleteIS1_EEERT0_RSt11_Tuple_implIXT_EJS5_DpT1_EE(ptr noundef nonnull align 8 dereferenceable(8) %__t) #1 comdat {
entry:
  %__t.addr = alloca ptr, align 8
  store ptr %__t, ptr %__t.addr, align 8
  %0 = load ptr, ptr %__t.addr, align 8
  %call = call noundef nonnull align 8 dereferenceable(8) ptr @_ZNSt11_Tuple_implILm0EJPN18OpenImageIO_v2_6_08Filter1DESt14default_deleteIS1_EEE7_M_headERS5_(ptr noundef nonnull align 8 dereferenceable(8) %0) #5
  ret ptr %call
}

; Function Attrs: mustprogress nounwind uwtable
define linkonce_odr noundef nonnull align 1 dereferenceable(1) ptr @_ZSt3getILm1EJPN18OpenImageIO_v2_6_08Filter1DESt14default_deleteIS1_EEERNSt13tuple_elementIXT_ESt5tupleIJDpT0_EEE4typeERS9_(ptr noundef nonnull align 8 dereferenceable(8) %__t) #1 comdat {
entry:
  %__t.addr = alloca ptr, align 8
  store ptr %__t, ptr %__t.addr, align 8
  %0 = load ptr, ptr %__t.addr, align 8
  %call = call noundef nonnull align 1 dereferenceable(1) ptr @_ZSt12__get_helperILm1ESt14default_deleteIN18OpenImageIO_v2_6_08Filter1DEEJEERT0_RSt11_Tuple_implIXT_EJS4_DpT1_EE(ptr noundef nonnull align 1 dereferenceable(1) %0) #5
  ret ptr %call
}

; Function Attrs: mustprogress nounwind uwtable
define linkonce_odr noundef nonnull align 8 dereferenceable(8) ptr @_ZSt3getILm0EJPN18OpenImageIO_v2_6_08Filter1DESt14default_deleteIS1_EEERNSt13tuple_elementIXT_ESt5tupleIJDpT0_EEE4typeERS9_(ptr noundef nonnull align 8 dereferenceable(8) %__t) #1 comdat {
entry:
  %__t.addr = alloca ptr, align 8
  store ptr %__t, ptr %__t.addr, align 8
  %0 = load ptr, ptr %__t.addr, align 8
  %call = call noundef nonnull align 8 dereferenceable(8) ptr @_ZSt12__get_helperILm0EPN18OpenImageIO_v2_6_08Filter1DEJSt14default_deleteIS1_EEERT0_RSt11_Tuple_implIXT_EJS5_DpT1_EE(ptr noundef nonnull align 8 dereferenceable(8) %0) #5
  ret ptr %call
}

; Function Attrs: mustprogress nounwind uwtable
define linkonce_odr void @_ZNKSt14default_deleteIN18OpenImageIO_v2_6_08Filter1DEEclEPS1_(ptr noundef nonnull align 1 dereferenceable(1) %this, ptr noundef %__ptr) #1 comdat align 2 {
entry:
  %this.addr = alloca ptr, align 8
  %__ptr.addr = alloca ptr, align 8
  store ptr %this, ptr %this.addr, align 8
  store ptr %__ptr, ptr %__ptr.addr, align 8
  %0 = load ptr, ptr %__ptr.addr, align 8
  %isnull = icmp eq ptr %0, null
  br i1 %isnull, label %delete.end, label %delete.notnull

delete.notnull:                                   ; preds = %entry
  %vtable = load ptr, ptr %0, align 8
  %vfn = getelementptr inbounds ptr, ptr %vtable, i64 1
  %1 = load ptr, ptr %vfn, align 8
  call void %1(ptr noundef nonnull align 8 dereferenceable(12) %0) #5
  br label %delete.end

delete.end:                                       ; preds = %delete.notnull, %entry
  ret void
}

; Function Attrs: mustprogress nounwind uwtable
define linkonce_odr noundef nonnull align 1 dereferenceable(1) ptr @_ZNSt15__uniq_ptr_implIN18OpenImageIO_v2_6_08Filter1DESt14default_deleteIS1_EE10_M_deleterEv(ptr noundef nonnull align 8 dereferenceable(8) %this) #1 comdat align 2 {
entry:
  %this.addr = alloca ptr, align 8
  store ptr %this, ptr %this.addr, align 8
  %this1 = load ptr, ptr %this.addr, align 8
  %_M_t = getelementptr inbounds %"class.std::__uniq_ptr_impl", ptr %this1, i32 0, i32 0
  %call = call noundef nonnull align 1 dereferenceable(1) ptr @_ZSt3getILm1EJPN18OpenImageIO_v2_6_08Filter1DESt14default_deleteIS1_EEERNSt13tuple_elementIXT_ESt5tupleIJDpT0_EEE4typeERS9_(ptr noundef nonnull align 8 dereferenceable(8) %_M_t) #5
  ret ptr %call
}

; Function Attrs: mustprogress nounwind uwtable
define linkonce_odr noundef nonnull align 8 dereferenceable(8) ptr @_ZNSt15__uniq_ptr_implIN18OpenImageIO_v2_6_08Filter1DESt14default_deleteIS1_EE6_M_ptrEv(ptr noundef nonnull align 8 dereferenceable(8) %this) #1 comdat align 2 {
entry:
  %this.addr = alloca ptr, align 8
  store ptr %this, ptr %this.addr, align 8
  %this1 = load ptr, ptr %this.addr, align 8
  %_M_t = getelementptr inbounds %"class.std::__uniq_ptr_impl", ptr %this1, i32 0, i32 0
  %call = call noundef nonnull align 8 dereferenceable(8) ptr @_ZSt3getILm0EJPN18OpenImageIO_v2_6_08Filter1DESt14default_deleteIS1_EEERNSt13tuple_elementIXT_ESt5tupleIJDpT0_EEE4typeERS9_(ptr noundef nonnull align 8 dereferenceable(8) %_M_t) #5
  ret ptr %call
}

; Function Attrs: mustprogress nounwind uwtable
define linkonce_odr noundef i64 @_ZNSt11char_traitsIcE6lengthEPKc(ptr noundef %__s) #1 comdat align 2 {
entry:
  %__s.addr = alloca ptr, align 8
  store ptr %__s, ptr %__s.addr, align 8
  %0 = load ptr, ptr %__s.addr, align 8
  %call = call i64 @strlen(ptr noundef %0) #5
  ret i64 %call
}

; Function Attrs: mustprogress nounwind uwtable
define linkonce_odr void @_ZNSt15__uniq_ptr_implIN18OpenImageIO_v2_6_08Filter1DESt14default_deleteIS1_EE5resetEPS1_(ptr noundef nonnull align 8 dereferenceable(8) %this, ptr noundef %__p) #1 comdat align 2 {
entry:
  %this.addr = alloca ptr, align 8
  %__p.addr = alloca ptr, align 8
  %__old_p = alloca ptr, align 8
  store ptr %this, ptr %this.addr, align 8
  store ptr %__p, ptr %__p.addr, align 8
  %this1 = load ptr, ptr %this.addr, align 8
  %call = call noundef nonnull align 8 dereferenceable(8) ptr @_ZNSt15__uniq_ptr_implIN18OpenImageIO_v2_6_08Filter1DESt14default_deleteIS1_EE6_M_ptrEv(ptr noundef nonnull align 8 dereferenceable(8) %this1) #5
  %0 = load ptr, ptr %call, align 8
  store ptr %0, ptr %__old_p, align 8
  %1 = load ptr, ptr %__p.addr, align 8
  %call2 = call noundef nonnull align 8 dereferenceable(8) ptr @_ZNSt15__uniq_ptr_implIN18OpenImageIO_v2_6_08Filter1DESt14default_deleteIS1_EE6_M_ptrEv(ptr noundef nonnull align 8 dereferenceable(8) %this1) #5
  store ptr %1, ptr %call2, align 8
  %2 = load ptr, ptr %__old_p, align 8
  %tobool = icmp ne ptr %2, null
  br i1 %tobool, label %if.then, label %if.end

if.then:                                          ; preds = %entry
  %call3 = call noundef nonnull align 1 dereferenceable(1) ptr @_ZNSt15__uniq_ptr_implIN18OpenImageIO_v2_6_08Filter1DESt14default_deleteIS1_EE10_M_deleterEv(ptr noundef nonnull align 8 dereferenceable(8) %this1) #5
  %3 = load ptr, ptr %__old_p, align 8
  call void @_ZNKSt14default_deleteIN18OpenImageIO_v2_6_08Filter1DEEclEPS1_(ptr noundef nonnull align 1 dereferenceable(1) %call3, ptr noundef %3)
  br label %if.end

if.end:                                           ; preds = %if.then, %entry
  ret void
}

; Function Attrs: noreturn nounwind uwtable
define linkonce_odr hidden void @__clang_call_terminate(ptr noundef %0) #9 comdat {
  %2 = call ptr @__cxa_begin_catch(ptr %0) #5
  call void @_ZSt9terminatev() #24
  unreachable
}

; Function Attrs: mustprogress uwtable
define linkonce_odr hidden noundef i64 @_ZN18OpenImageIO_v2_6_017basic_string_viewIcSt11char_traitsIcEE8cestrlenEPKc(ptr noundef %chars) #7 comdat align 2 {
entry:
  %chars.addr = alloca ptr, align 8
  store ptr %chars, ptr %chars.addr, align 8
  %0 = load ptr, ptr %chars.addr, align 8
  %call = call noundef i64 @_ZNSt11char_traitsIcE6lengthEPKc(ptr noundef %0)
  ret i64 %call
}

; Function Attrs: mustprogress nounwind uwtable
define linkonce_odr void @_ZNSt10unique_ptrIN18OpenImageIO_v2_6_08Filter1DESt14default_deleteIS1_EE5resetEPS1_(ptr noundef nonnull align 8 dereferenceable(8) %this, ptr noundef %__p) #1 comdat align 2 {
entry:
  %this.addr = alloca ptr, align 8
  %__p.addr = alloca ptr, align 8
  store ptr %this, ptr %this.addr, align 8
  store ptr %__p, ptr %__p.addr, align 8
  %this1 = load ptr, ptr %this.addr, align 8
  %_M_t = getelementptr inbounds %"class.std::unique_ptr", ptr %this1, i32 0, i32 0
  %0 = load ptr, ptr %__p.addr, align 8
  call void @_ZNSt15__uniq_ptr_implIN18OpenImageIO_v2_6_08Filter1DESt14default_deleteIS1_EE5resetEPS1_(ptr noundef nonnull align 8 dereferenceable(8) %_M_t, ptr noundef %0) #5
  ret void
}

; Function Attrs: mustprogress nounwind uwtable
define linkonce_odr hidden void @_ZN18OpenImageIO_v2_6_017basic_string_viewIcSt11char_traitsIcEEC2EPKc(ptr noundef nonnull align 8 dereferenceable(16) %this, ptr noundef %chars) unnamed_addr #1 comdat align 2 personality ptr @__gxx_personality_v0 {
entry:
  %this.addr = alloca ptr, align 8
  %chars.addr = alloca ptr, align 8
  store ptr %this, ptr %this.addr, align 8
  store ptr %chars, ptr %chars.addr, align 8
  %this1 = load ptr, ptr %this.addr, align 8
  %m_chars = getelementptr inbounds %"class.OpenImageIO_v2_6_0::basic_string_view", ptr %this1, i32 0, i32 0
  %0 = load ptr, ptr %chars.addr, align 8
  store ptr %0, ptr %m_chars, align 8
  %m_len = getelementptr inbounds %"class.OpenImageIO_v2_6_0::basic_string_view", ptr %this1, i32 0, i32 1
  %1 = load ptr, ptr %chars.addr, align 8
  %tobool = icmp ne ptr %1, null
  br i1 %tobool, label %cond.true, label %cond.false

cond.true:                                        ; preds = %entry
  %2 = load ptr, ptr %chars.addr, align 8
  %call = invoke noundef i64 @_ZN18OpenImageIO_v2_6_017basic_string_viewIcSt11char_traitsIcEE8cestrlenEPKc(ptr noundef %2)
          to label %invoke.cont unwind label %terminate.lpad

invoke.cont:                                      ; preds = %cond.true
  br label %cond.end

cond.false:                                       ; preds = %entry
  br label %cond.end

cond.end:                                         ; preds = %cond.false, %invoke.cont
  %cond = phi i64 [ %call, %invoke.cont ], [ 0, %cond.false ]
  store i64 %cond, ptr %m_len, align 8
  ret void

terminate.lpad:                                   ; preds = %cond.true
  %3 = landingpad { ptr, i32 }
          catch ptr null
  %4 = extractvalue { ptr, i32 } %3, 0
  call void @__clang_call_terminate(ptr %4) #24
  unreachable
}

; Function Attrs: mustprogress nounwind uwtable
define linkonce_odr hidden void @_ZN9Imath_2_58Matrix44IfE12makeIdentityEv(ptr noundef nonnull align 4 dereferenceable(64) %this) #1 comdat align 2 {
entry:
  %this.addr = alloca ptr, align 8
  store ptr %this, ptr %this.addr, align 8
  %this1 = load ptr, ptr %this.addr, align 8
  %x = getelementptr inbounds %"class.Imath_2_5::Matrix44", ptr %this1, i32 0, i32 0
  %arraydecay = getelementptr inbounds [4 x [4 x float]], ptr %x, i64 0, i64 0
  call void @llvm.memset.p0.i64(ptr align 4 %arraydecay, i8 0, i64 64, i1 false)
  %x2 = getelementptr inbounds %"class.Imath_2_5::Matrix44", ptr %this1, i32 0, i32 0
  %arrayidx = getelementptr inbounds [4 x [4 x float]], ptr %x2, i64 0, i64 0
  %arrayidx3 = getelementptr inbounds [4 x float], ptr %arrayidx, i64 0, i64 0
  store float 1.000000e+00, ptr %arrayidx3, align 4
  %x4 = getelementptr inbounds %"class.Imath_2_5::Matrix44", ptr %this1, i32 0, i32 0
  %arrayidx5 = getelementptr inbounds [4 x [4 x float]], ptr %x4, i64 0, i64 1
  %arrayidx6 = getelementptr inbounds [4 x float], ptr %arrayidx5, i64 0, i64 1
  store float 1.000000e+00, ptr %arrayidx6, align 4
  %x7 = getelementptr inbounds %"class.Imath_2_5::Matrix44", ptr %this1, i32 0, i32 0
  %arrayidx8 = getelementptr inbounds [4 x [4 x float]], ptr %x7, i64 0, i64 2
  %arrayidx9 = getelementptr inbounds [4 x float], ptr %arrayidx8, i64 0, i64 2
  store float 1.000000e+00, ptr %arrayidx9, align 4
  %x10 = getelementptr inbounds %"class.Imath_2_5::Matrix44", ptr %this1, i32 0, i32 0
  %arrayidx11 = getelementptr inbounds [4 x [4 x float]], ptr %x10, i64 0, i64 3
  %arrayidx12 = getelementptr inbounds [4 x float], ptr %arrayidx11, i64 0, i64 3
  store float 1.000000e+00, ptr %arrayidx12, align 4
  ret void
}

; Function Attrs: mustprogress uwtable
define hidden void @_ZN18OpenImageIO_v2_6_03pvt17TextureSystemImpl4initEv(ptr noundef nonnull align 8 dereferenceable(184) %this) #7 align 2 {
entry:
  %this.addr = alloca ptr, align 8
  %agg.tmp = alloca %"class.OpenImageIO_v2_6_0::basic_string_view", align 8
  %options = alloca ptr, align 8
  %agg.tmp3 = alloca %"class.OpenImageIO_v2_6_0::basic_string_view", align 8
  %agg.tmp4 = alloca %"class.OpenImageIO_v2_6_0::basic_string_view", align 8
  store ptr %this, ptr %this.addr, align 8
  %this1 = load ptr, ptr %this.addr, align 8
  %m_Mw2c = getelementptr inbounds %"class.OpenImageIO_v2_6_0::pvt::TextureSystemImpl", ptr %this1, i32 0, i32 4
  call void @_ZN9Imath_2_58Matrix44IfE12makeIdentityEv(ptr noundef nonnull align 4 dereferenceable(64) %m_Mw2c)
  %m_gray_to_rgb = getelementptr inbounds %"class.OpenImageIO_v2_6_0::pvt::TextureSystemImpl", ptr %this1, i32 0, i32 6
  store i8 0, ptr %m_gray_to_rgb, align 4
  %m_flip_t = getelementptr inbounds %"class.OpenImageIO_v2_6_0::pvt::TextureSystemImpl", ptr %this1, i32 0, i32 7
  store i8 0, ptr %m_flip_t, align 1
  %m_max_tile_channels = getelementptr inbounds %"class.OpenImageIO_v2_6_0::pvt::TextureSystemImpl", ptr %this1, i32 0, i32 9
  store i32 6, ptr %m_max_tile_channels, align 8
  %m_stochastic = getelementptr inbounds %"class.OpenImageIO_v2_6_0::pvt::TextureSystemImpl", ptr %this1, i32 0, i32 10
  store i32 0, ptr %m_stochastic, align 4
  %hq_filter = getelementptr inbounds %"class.OpenImageIO_v2_6_0::pvt::TextureSystemImpl", ptr %this1, i32 0, i32 12
  call void @_ZN18OpenImageIO_v2_6_017basic_string_viewIcSt11char_traitsIcEEC2EPKc(ptr noundef nonnull align 8 dereferenceable(16) %agg.tmp, ptr noundef @.str.15) #5
  %call = call noundef ptr @_ZN18OpenImageIO_v2_6_08Filter1D6createENS_17basic_string_viewIcSt11char_traitsIcEEEf(ptr noundef %agg.tmp, float noundef 4.000000e+00)
  call void @_ZNSt10unique_ptrIN18OpenImageIO_v2_6_08Filter1DESt14default_deleteIS1_EE5resetEPS1_(ptr noundef nonnull align 8 dereferenceable(8) %hq_filter, ptr noundef %call) #5
  %m_statslevel = getelementptr inbounds %"class.OpenImageIO_v2_6_0::pvt::TextureSystemImpl", ptr %this1, i32 0, i32 13
  store i32 0, ptr %m_statslevel, align 8
  %call2 = call ptr @getenv(ptr noundef @.str.16) #5
  store ptr %call2, ptr %options, align 8
  %0 = load ptr, ptr %options, align 8
  %tobool = icmp ne ptr %0, null
  br i1 %tobool, label %if.then, label %if.end

if.then:                                          ; preds = %entry
  call void @_ZN18OpenImageIO_v2_6_017basic_string_viewIcSt11char_traitsIcEEC2EPKc(ptr noundef nonnull align 8 dereferenceable(16) %agg.tmp3, ptr noundef @.str.17) #5
  %1 = load ptr, ptr %options, align 8
  call void @_ZN18OpenImageIO_v2_6_017basic_string_viewIcSt11char_traitsIcEEC2EPKc(ptr noundef nonnull align 8 dereferenceable(16) %agg.tmp4, ptr noundef %1) #5
  %call5 = call noundef zeroext i1 @_ZN18OpenImageIO_v2_6_03pvt17TextureSystemImpl9attributeENS_17basic_string_viewIcSt11char_traitsIcEEES5_(ptr noundef nonnull align 8 dereferenceable(184) %this1, ptr noundef %agg.tmp3, ptr noundef %agg.tmp4)
  br label %if.end

if.end:                                           ; preds = %if.then, %entry
  %2 = load i8, ptr @_ZN18OpenImageIO_v2_6_012_GLOBAL__N_120do_unit_test_textureE, align 1
  %tobool6 = trunc i8 %2 to i1
  br i1 %tobool6, label %if.then7, label %if.end8

if.then7:                                         ; preds = %if.end
  call void @_ZN18OpenImageIO_v2_6_03pvt17TextureSystemImpl17unit_test_textureEv(ptr noundef nonnull align 8 dereferenceable(184) %this1)
  br label %if.end8

if.end8:                                          ; preds = %if.then7, %if.end
  ret void
}