; Function Attrs: mustprogress uwtable
define hidden void @_ZN18OpenImageIO_v2_6_03pvt17TextureSystemImpl4initEv(ptr noundef nonnull align 8 dereferenceable(184) %this) local_unnamed_addr #5 align 2 personality ptr @__gxx_personality_v0 {
entry:
  %agg.tmp = alloca %"class.OpenImageIO_v2_6_0::basic_string_view", align 8
  %agg.tmp3 = alloca %"class.OpenImageIO_v2_6_0::basic_string_view", align 8
  %agg.tmp4 = alloca %"class.OpenImageIO_v2_6_0::basic_string_view", align 8
  %m_Mw2c = getelementptr inbounds i8, ptr %this, i64 20
  %0 = getelementptr inbounds i8, ptr %this, i64 24
  tail call void @llvm.memset.p0.i64(ptr noundef nonnull align 8 dereferenceable(64) %0, i8 0, i64 56, i1 false)
  store float 1.000000e+00, ptr %m_Mw2c, align 4
  %arrayidx6.i = getelementptr inbounds i8, ptr %this, i64 40
  store float 1.000000e+00, ptr %arrayidx6.i, align 8
  %arrayidx9.i = getelementptr inbounds i8, ptr %this, i64 60
  store float 1.000000e+00, ptr %arrayidx9.i, align 4
  %arrayidx12.i = getelementptr inbounds i8, ptr %this, i64 80
  store float 1.000000e+00, ptr %arrayidx12.i, align 8
  %m_gray_to_rgb = getelementptr inbounds i8, ptr %this, i64 148
  store i8 0, ptr %m_gray_to_rgb, align 4
  %m_flip_t = getelementptr inbounds i8, ptr %this, i64 149
  store i8 0, ptr %m_flip_t, align 1
  %m_max_tile_channels = getelementptr inbounds i8, ptr %this, i64 152
  store i32 6, ptr %m_max_tile_channels, align 8
  %m_stochastic = getelementptr inbounds i8, ptr %this, i64 156
  store i32 0, ptr %m_stochastic, align 4
  %hq_filter = getelementptr inbounds i8, ptr %this, i64 168
  store ptr @.str.15, ptr %agg.tmp, align 8
  %m_len.i = getelementptr inbounds i8, ptr %agg.tmp, i64 8
  store i64 8, ptr %m_len.i, align 8
  %call = call noundef ptr @_ZN18OpenImageIO_v2_6_08Filter1D6createENS_17basic_string_viewIcSt11char_traitsIcEEEf(ptr noundef nonnull %agg.tmp, float noundef 4.000000e+00)
  %1 = load ptr, ptr %hq_filter, align 8
  store ptr %call, ptr %hq_filter, align 8
  %tobool.not.i.i = icmp eq ptr %1, null
  br i1 %tobool.not.i.i, label %_ZNSt10unique_ptrIN18OpenImageIO_v2_6_08Filter1DESt14default_deleteIS1_EE5resetEPS1_.exit, label %_ZNKSt14default_deleteIN18OpenImageIO_v2_6_08Filter1DEEclEPS1_.exit.i.i

_ZNKSt14default_deleteIN18OpenImageIO_v2_6_08Filter1DEEclEPS1_.exit.i.i: ; preds = %entry
  %vtable.i.i.i = load ptr, ptr %1, align 8
  %vfn.i.i.i = getelementptr inbounds i8, ptr %vtable.i.i.i, i64 8
  %2 = load ptr, ptr %vfn.i.i.i, align 8
  call void %2(ptr noundef nonnull align 8 dereferenceable(12) %1) #30
  br label %_ZNSt10unique_ptrIN18OpenImageIO_v2_6_08Filter1DESt14default_deleteIS1_EE5resetEPS1_.exit

_ZNSt10unique_ptrIN18OpenImageIO_v2_6_08Filter1DESt14default_deleteIS1_EE5resetEPS1_.exit: ; preds = %entry, %_ZNKSt14default_deleteIN18OpenImageIO_v2_6_08Filter1DEEclEPS1_.exit.i.i
  %m_statslevel = getelementptr inbounds i8, ptr %this, i64 176
  store i32 0, ptr %m_statslevel, align 8
  %call2 = call ptr @getenv(ptr noundef nonnull @.str.16) #30
  %tobool.not = icmp eq ptr %call2, null
  br i1 %tobool.not, label %if.end, label %_ZN18OpenImageIO_v2_6_017basic_string_viewIcSt11char_traitsIcEEC2EPKc.exit

_ZN18OpenImageIO_v2_6_017basic_string_viewIcSt11char_traitsIcEEC2EPKc.exit: ; preds = %_ZNSt10unique_ptrIN18OpenImageIO_v2_6_08Filter1DESt14default_deleteIS1_EE5resetEPS1_.exit
  store ptr @.str.17, ptr %agg.tmp3, align 8
  %m_len.i3 = getelementptr inbounds i8, ptr %agg.tmp3, i64 8
  store i64 7, ptr %m_len.i3, align 8
  store ptr %call2, ptr %agg.tmp4, align 8
  %call.i.i.i4 = call noundef i64 @strlen(ptr noundef nonnull dereferenceable(1) %call2) #30
  %m_len.i5 = getelementptr inbounds i8, ptr %agg.tmp4, i64 8
  store i64 %call.i.i.i4, ptr %m_len.i5, align 8
  %call5 = call noundef zeroext i1 @_ZN18OpenImageIO_v2_6_03pvt17TextureSystemImpl9attributeENS_17basic_string_viewIcSt11char_traitsIcEEES5_(ptr noundef nonnull align 8 dereferenceable(184) %this, ptr noundef nonnull %agg.tmp3, ptr noundef nonnull %agg.tmp4)
  br label %if.end

if.end:                                           ; preds = %_ZN18OpenImageIO_v2_6_017basic_string_viewIcSt11char_traitsIcEEC2EPKc.exit, %_ZNSt10unique_ptrIN18OpenImageIO_v2_6_08Filter1DESt14default_deleteIS1_EE5resetEPS1_.exit
  %3 = load i8, ptr @_ZN18OpenImageIO_v2_6_012_GLOBAL__N_120do_unit_test_textureE, align 1
  %4 = and i8 %3, 1
  %tobool6.not = icmp eq i8 %4, 0
  br i1 %tobool6.not, label %if.end8, label %if.then7

if.then7:                                         ; preds = %if.end
  call void @_ZN18OpenImageIO_v2_6_03pvt17TextureSystemImpl17unit_test_textureEv(ptr noundef nonnull align 8 dereferenceable(184) %this)
  br label %if.end8

if.end8:                                          ; preds = %if.then7, %if.end
  ret void
}